; Function Attrs: mustprogress uwtable
define dso_local void @_ZN5cmake29SetSuppressDeprecatedWarningsEb(ptr noundef nonnull align 8 dereferenceable(2216) %0, i1 noundef zeroext %1) local_unnamed_addr #3 align 2 personality ptr @__gxx_personality_v0 {
.invoke:
  %2 = alloca %"class.std::__cxx11::basic_string", align 8
  %3 = alloca %"class.std::__cxx11::basic_string", align 8
  %4 = alloca %"class.std::allocator", align 1
  %5 = alloca %"class.std::__cxx11::basic_string", align 8
  %6 = alloca %"class.std::allocator", align 1
  call void @_ZNSt7__cxx1112basic_stringIcSt11char_traitsIcESaIcEEC1Ev(ptr noundef nonnull align 8 dereferenceable(32) %2) #30
  %7 = select i1 %1, ptr @.str.398, ptr @.str.397
  %8 = invoke noundef nonnull align 8 dereferenceable(32) ptr @_ZNSt7__cxx1112basic_stringIcSt11char_traitsIcESaIcEEaSEPKc(ptr noundef nonnull align 8 dereferenceable(32) %2, ptr noundef nonnull %7)
          to label %11 unwind label %9

9:                                                ; preds = %.invoke
  %10 = landingpad { ptr, i32 }
          cleanup
  br label %24

11:                                               ; preds = %.invoke
  call void @_ZNSaIcEC1Ev(ptr noundef nonnull align 1 dereferenceable(1) %4) #30
  %12 = invoke noundef ptr @_ZNSt7__cxx1112basic_stringIcSt11char_traitsIcESaIcEE13_M_local_dataEv(ptr noundef nonnull align 8 dereferenceable(32) %3)
          to label %.noexc unwind label %18

.noexc:                                           ; preds = %11
  invoke void @_ZNSt7__cxx1112basic_stringIcSt11char_traitsIcESaIcEE12_Alloc_hiderC1EPcRKS3_(ptr noundef nonnull align 8 dereferenceable(8) %3, ptr noundef %12, ptr noundef nonnull align 1 dereferenceable(1) %4)
          to label %.noexc9 unwind label %18

.noexc9:                                          ; preds = %.noexc
  invoke void @_ZNSt7__cxx1112basic_stringIcSt11char_traitsIcESaIcEE12_M_constructIPKcEEvT_S8_St20forward_iterator_tag(ptr noundef nonnull align 8 dereferenceable(32) %3, ptr noundef nonnull @.str.274, ptr noundef nonnull getelementptr inbounds ([22 x i8], ptr @.str.274, i64 0, i64 21))
          to label %_ZNSt7__cxx1112basic_stringIcSt11char_traitsIcESaIcEEC2IS3_EEPKcRKS3_.exit unwind label %13

13:                                               ; preds = %.noexc9
  %14 = landingpad { ptr, i32 }
          cleanup
  call void @_ZNSaIcED2Ev(ptr noundef nonnull align 1 dereferenceable(1) %3) #30
  br label %.body

_ZNSt7__cxx1112basic_stringIcSt11char_traitsIcESaIcEEC2IS3_EEPKcRKS3_.exit: ; preds = %.noexc9
  call void @_ZNSaIcEC1Ev(ptr noundef nonnull align 1 dereferenceable(1) %6) #30
  %15 = invoke noundef ptr @_ZNSt7__cxx1112basic_stringIcSt11char_traitsIcESaIcEE13_M_local_dataEv(ptr noundef nonnull align 8 dereferenceable(32) %5)
          to label %.noexc10 unwind label %20

.noexc10:                                         ; preds = %_ZNSt7__cxx1112basic_stringIcSt11char_traitsIcESaIcEEC2IS3_EEPKcRKS3_.exit
  invoke void @_ZNSt7__cxx1112basic_stringIcSt11char_traitsIcESaIcEE12_Alloc_hiderC1EPcRKS3_(ptr noundef nonnull align 8 dereferenceable(8) %5, ptr noundef %15, ptr noundef nonnull align 1 dereferenceable(1) %6)
          to label %.noexc11 unwind label %20

.noexc11:                                         ; preds = %.noexc10
  invoke void @_ZNSt7__cxx1112basic_stringIcSt11char_traitsIcESaIcEE12_M_constructIPKcEEvT_S8_St20forward_iterator_tag(ptr noundef nonnull align 8 dereferenceable(32) %5, ptr noundef nonnull @.str.400, ptr noundef nonnull getelementptr inbounds ([56 x i8], ptr @.str.400, i64 0, i64 55))
          to label %_ZNSt7__cxx1112basic_stringIcSt11char_traitsIcESaIcEEC2IS3_EEPKcRKS3_.exit14 unwind label %16

16:                                               ; preds = %.noexc11
  %17 = landingpad { ptr, i32 }
          cleanup
  call void @_ZNSaIcED2Ev(ptr noundef nonnull align 1 dereferenceable(1) %5) #30
  br label %.body12

_ZNSt7__cxx1112basic_stringIcSt11char_traitsIcESaIcEEC2IS3_EEPKcRKS3_.exit14: ; preds = %.noexc11
  invoke void @_ZN5cmake13AddCacheEntryERKNSt7__cxx1112basic_stringIcSt11char_traitsIcESaIcEEE7cmValueS8_i(ptr noundef nonnull align 8 dereferenceable(2216) %0, ptr noundef nonnull align 8 dereferenceable(32) %3, ptr nonnull %2, ptr nonnull %5, i32 noundef 4)
          to label %_ZN5cmake13AddCacheEntryERKNSt7__cxx1112basic_stringIcSt11char_traitsIcESaIcEEES7_S7_i.exit unwind label %22

_ZN5cmake13AddCacheEntryERKNSt7__cxx1112basic_stringIcSt11char_traitsIcESaIcEEES7_S7_i.exit: ; preds = %_ZNSt7__cxx1112basic_stringIcSt11char_traitsIcESaIcEEC2IS3_EEPKcRKS3_.exit14
  call void @_ZNSt7__cxx1112basic_stringIcSt11char_traitsIcESaIcEED1Ev(ptr noundef nonnull align 8 dereferenceable(32) %5) #30
  call void @_ZNSaIcED1Ev(ptr noundef nonnull align 1 dereferenceable(1) %6) #30
  call void @_ZNSt7__cxx1112basic_stringIcSt11char_traitsIcESaIcEED1Ev(ptr noundef nonnull align 8 dereferenceable(32) %3) #30
  call void @_ZNSaIcED1Ev(ptr noundef nonnull align 1 dereferenceable(1) %4) #30
  call void @_ZNSt7__cxx1112basic_stringIcSt11char_traitsIcESaIcEED1Ev(ptr noundef nonnull align 8 dereferenceable(32) %2) #30
  ret void

18:                                               ; preds = %.noexc, %11
  %19 = landingpad { ptr, i32 }
          cleanup
  br label %.body

20:                                               ; preds = %.noexc10, %_ZNSt7__cxx1112basic_stringIcSt11char_traitsIcESaIcEEC2IS3_EEPKcRKS3_.exit
  %21 = landingpad { ptr, i32 }
          cleanup
  br label %.body12

22:                                               ; preds = %_ZNSt7__cxx1112basic_stringIcSt11char_traitsIcESaIcEEC2IS3_EEPKcRKS3_.exit14
  %23 = landingpad { ptr, i32 }
          cleanup
  call void @_ZNSt7__cxx1112basic_stringIcSt11char_traitsIcESaIcEED1Ev(ptr noundef nonnull align 8 dereferenceable(32) %5) #30
  br label %.body12

.body12:                                          ; preds = %20, %16, %22
  %.pn = phi { ptr, i32 } [ %23, %22 ], [ %21, %20 ], [ %17, %16 ]
  call void @_ZNSaIcED1Ev(ptr noundef nonnull align 1 dereferenceable(1) %6) #30
  call void @_ZNSt7__cxx1112basic_stringIcSt11char_traitsIcESaIcEED1Ev(ptr noundef nonnull align 8 dereferenceable(32) %3) #30
  br label %.body

.body:                                            ; preds = %18, %13, %.body12
  %.pn.pn = phi { ptr, i32 } [ %.pn, %.body12 ], [ %19, %18 ], [ %14, %13 ]
  call void @_ZNSaIcED1Ev(ptr noundef nonnull align 1 dereferenceable(1) %4) #30
  br label %24

24:                                               ; preds = %.body, %9
  %.pn.pn.pn = phi { ptr, i32 } [ %.pn.pn, %.body ], [ %10, %9 ]
  call void @_ZNSt7__cxx1112basic_stringIcSt11char_traitsIcESaIcEED1Ev(ptr noundef nonnull align 8 dereferenceable(32) %2) #30
  resume { ptr, i32 } %.pn.pn.pn
}